target datalayout = "e-m:e-p270:32:32-p271:32:32-p272:64:64-i64:64-i128:128-f80:128-n8:16:32:64-S128"
target triple = "x86_64-unknown-linux-gnu"

%"class.sat::parallel::vector_pool" = type { %class.svector, i32, i32, %class.svector, %class.svector.0 }
%class.svector = type { %class.vector }
%class.vector = type { ptr }
%class.svector.0 = type { %class.vector.1 }
%class.vector.1 = type { ptr }

; Function Attrs: mustprogress nounwind uwtable
define hidden void @_ZN3sat8parallel11vector_pool14end_add_vectorEv(ptr noundef nonnull align 8 dereferenceable(32) %this) #4 align 2 {
entry:
  %this.addr = alloca ptr, align 8
  store ptr %this, ptr %this.addr, align 8
  %this1 = load ptr, ptr %this.addr, align 8
  %m_tail = getelementptr inbounds %"class.sat::parallel::vector_pool", ptr %this1, i32 0, i32 2
  %0 = load i32, ptr %m_tail, align 4
  %m_size = getelementptr inbounds %"class.sat::parallel::vector_pool", ptr %this1, i32 0, i32 1
  %1 = load i32, ptr %m_size, align 8
  %cmp = icmp uge i32 %0, %1
  br i1 %cmp, label %if.then, label %if.end

if.then:                                          ; preds = %entry
  %m_tail2 = getelementptr inbounds %"class.sat::parallel::vector_pool", ptr %this1, i32 0, i32 2
  store i32 0, ptr %m_tail2, align 4
  br label %if.end

if.end:                                           ; preds = %if.then, %entry
  ret void
}