; Function Attrs: mustprogress nofree norecurse nosync nounwind willreturn memory(argmem: readwrite) uwtable
define hidden void @_ZN3sat8parallel11vector_pool14end_add_vectorEv(ptr nocapture noundef nonnull align 8 dereferenceable(32) %this) local_unnamed_addr #6 align 2 {
entry:
  %m_tail = getelementptr inbounds i8, ptr %this, i64 12
  %0 = load i32, ptr %m_tail, align 4
  %m_size = getelementptr inbounds i8, ptr %this, i64 8
  %1 = load i32, ptr %m_size, align 8
  %cmp.not = icmp ult i32 %0, %1
  br i1 %cmp.not, label %if.end, label %if.then

if.then:                                          ; preds = %entry
  store i32 0, ptr %m_tail, align 4
  br label %if.end

if.end:                                           ; preds = %if.then, %entry
  ret void
}